; Function Attrs: mustprogress nofree norecurse nosync nounwind willreturn memory(read, argmem: readwrite, inaccessiblemem: none) uwtable
define noundef double @_ZN8QuantLib17AdaptedPathPayoff13ValuationData13getAssetValueEmm(ptr nocapture noundef nonnull align 8 dereferenceable(48) %this, i64 noundef %time, i64 noundef %asset) local_unnamed_addr #13 align 2 {
entry:
  %maximumTimeRead_ = getelementptr inbounds nuw i8, ptr %this, i64 40
  %0 = load i64, ptr %maximumTimeRead_, align 8, !tbaa !15
  %.sroa.speculated = tail call i64 @llvm.umax.i64(i64 %0, i64 %time)
  store i64 %.sroa.speculated, ptr %maximumTimeRead_, align 8, !tbaa !19
  %1 = load ptr, ptr %this, align 8, !tbaa !21
  %2 = load ptr, ptr %1, align 8, !tbaa !18
  %columns_.i.i = getelementptr inbounds nuw i8, ptr %1, i64 16
  %3 = load i64, ptr %columns_.i.i, align 8, !tbaa !22
  %mul.i.i = mul i64 %3, %asset
  %add.ptr.i.i = getelementptr inbounds nuw double, ptr %2, i64 %mul.i.i
  %arrayidx = getelementptr inbounds nuw double, ptr %add.ptr.i.i, i64 %time
  %4 = load double, ptr %arrayidx, align 8, !tbaa !31
  ret double %4
}